target datalayout = "e-m:e-p270:32:32-p271:32:32-p272:64:64-i64:64-i128:128-f80:128-n8:16:32:64-S128"
target triple = "x86_64-pc-linux-gnu"

%class.model_core = type { ptr, ptr, i32, [4 x i8], %class.obj_map, %class.obj_map.0, %class.ptr_vector, %class.ptr_vector, %class.ptr_vector }
%class.obj_map = type { %class.core_hashtable }
%class.core_hashtable = type <{ ptr, i32, i32, i32, [4 x i8] }>
%class.obj_map.0 = type { %class.core_hashtable.1 }
%class.core_hashtable.1 = type <{ ptr, i32, i32, i32, [4 x i8] }>
%class.ptr_vector = type { %class.vector }
%class.vector = type { ptr }
%class.func_decl = type { %class.decl, i32, ptr, [0 x ptr] }
%class.decl = type { %class.ast, %class.symbol, ptr }
%class.ast = type { i32, i32, i32, i32 }
%class.symbol = type { ptr }

; Function Attrs: mustprogress uwtable
define linkonce_odr hidden void @_Z7deallocI11func_interpEvPT_(ptr noundef %0) #6 comdat {
  %2 = alloca ptr, align 8
  store ptr %0, ptr %2, align 8, !tbaa !53
  %3 = load ptr, ptr %2, align 8, !tbaa !53
  %4 = icmp eq ptr %3, null
  br i1 %4, label %5, label %6

5:                                                ; preds = %1
  br label %9

6:                                                ; preds = %1
  %7 = load ptr, ptr %2, align 8, !tbaa !53
  call void @_ZN11func_interpD1Ev(ptr noundef nonnull align 8 dereferenceable(56) %7) #3
  %8 = load ptr, ptr %2, align 8, !tbaa !53
  call void @_ZN6memory10deallocateEPv(ptr noundef %8)
  br label %9

9:                                                ; preds = %6, %5
  ret void
}

; Function Attrs: mustprogress nounwind uwtable
define linkonce_odr hidden noundef nonnull align 8 dereferenceable(8) ptr @_ZNK6vectorIP9func_declLb0EjEixEj(ptr noundef nonnull align 8 dereferenceable(8) %0, i32 noundef %1) #4 comdat align 2 {
  %3 = alloca ptr, align 8
  %4 = alloca i32, align 4
  store ptr %0, ptr %3, align 8, !tbaa !54
  store i32 %1, ptr %4, align 4, !tbaa !72
  %5 = load ptr, ptr %3, align 8
  %6 = getelementptr inbounds nuw %class.vector, ptr %5, i32 0, i32 0
  %7 = load ptr, ptr %6, align 8, !tbaa !82
  %8 = load i32, ptr %4, align 4, !tbaa !72
  %9 = zext i32 %8 to i64
  %10 = getelementptr inbounds nuw ptr, ptr %7, i64 %9
  ret ptr %10
}

; Function Attrs: mustprogress nounwind uwtable
define linkonce_odr hidden noundef i32 @_ZNK6vectorIP9func_declLb0EjE4sizeEv(ptr noundef nonnull align 8 dereferenceable(8) %0) #4 comdat align 2 {
  %2 = alloca i32, align 4
  %3 = alloca ptr, align 8
  store ptr %0, ptr %3, align 8, !tbaa !54
  %4 = load ptr, ptr %3, align 8
  %5 = getelementptr inbounds nuw %class.vector, ptr %4, i32 0, i32 0
  %6 = load ptr, ptr %5, align 8, !tbaa !82
  %7 = icmp eq ptr %6, null
  br i1 %7, label %8, label %9

8:                                                ; preds = %1
  store i32 0, ptr %2, align 4
  br label %14

9:                                                ; preds = %1
  %10 = getelementptr inbounds nuw %class.vector, ptr %4, i32 0, i32 0
  %11 = load ptr, ptr %10, align 8, !tbaa !82
  %12 = getelementptr inbounds i32, ptr %11, i64 -1
  %13 = load i32, ptr %12, align 4, !tbaa !72
  store i32 %13, ptr %2, align 4
  br label %14

14:                                               ; preds = %9, %8
  %15 = load i32, ptr %2, align 4
  ret i32 %15
}

; Function Attrs: mustprogress uwtable
define hidden void @_ZN10model_core13register_declEP9func_declP11func_interp(ptr noundef nonnull align 8 dereferenceable(96) %0, ptr noundef %1, ptr noundef %2) #6 align 2 {
  %4 = alloca ptr, align 8
  %5 = alloca ptr, align 8
  %6 = alloca ptr, align 8
  %7 = alloca ptr, align 8
  store ptr %0, ptr %4, align 8, !tbaa !3
  store ptr %1, ptr %5, align 8, !tbaa !56
  store ptr %2, ptr %6, align 8, !tbaa !53
  %8 = load ptr, ptr %4, align 8
  call void @llvm.lifetime.start.p0(i64 8, ptr %7) #3
  %9 = load ptr, ptr %5, align 8, !tbaa !56
  %10 = load ptr, ptr %6, align 8, !tbaa !53
  %11 = call noundef ptr @_ZN10model_core18update_func_interpEP9func_declP11func_interp(ptr noundef nonnull align 8 dereferenceable(96) %8, ptr noundef %9, ptr noundef %10)
  store ptr %11, ptr %7, align 8, !tbaa !53
  %12 = load ptr, ptr %7, align 8, !tbaa !53
  call void @_Z7deallocI11func_interpEvPT_(ptr noundef %12)
  call void @llvm.lifetime.end.p0(i64 8, ptr %7) #3
  ret void
}

; Function Attrs: mustprogress nounwind uwtable
define linkonce_odr hidden noundef i32 @_ZNK9func_decl9get_arityEv(ptr noundef nonnull align 8 dereferenceable(48) %0) #4 comdat align 2 {
  %2 = alloca ptr, align 8
  store ptr %0, ptr %2, align 8, !tbaa !56
  %3 = load ptr, ptr %2, align 8
  %4 = getelementptr inbounds nuw %class.func_decl, ptr %3, i32 0, i32 1
  %5 = load i32, ptr %4, align 8, !tbaa !59
  ret i32 %5
}

; Function Attrs: mustprogress uwtable
define linkonce_odr hidden noundef ptr @_ZNK10model_core8get_declEj(ptr noundef nonnull align 8 dereferenceable(96) %0, i32 noundef %1) #6 comdat align 2 {
  %3 = alloca ptr, align 8
  %4 = alloca i32, align 4
  store ptr %0, ptr %3, align 8, !tbaa !3
  store i32 %1, ptr %4, align 4, !tbaa !72
  %5 = load ptr, ptr %3, align 8
  %6 = getelementptr inbounds nuw %class.model_core, ptr %5, i32 0, i32 6
  %7 = load i32, ptr %4, align 4, !tbaa !72
  %8 = call noundef nonnull align 8 dereferenceable(8) ptr @_ZNK6vectorIP9func_declLb0EjEixEj(ptr noundef nonnull align 8 dereferenceable(8) %6, i32 noundef %7)
  %9 = load ptr, ptr %8, align 8, !tbaa !56
  ret ptr %9
}

; Function Attrs: mustprogress uwtable
define linkonce_odr hidden noundef i32 @_ZNK10model_core13get_num_declsEv(ptr noundef nonnull align 8 dereferenceable(96) %0) #6 comdat align 2 {
  %2 = alloca ptr, align 8
  store ptr %0, ptr %2, align 8, !tbaa !3
  %3 = load ptr, ptr %2, align 8
  %4 = getelementptr inbounds nuw %class.model_core, ptr %3, i32 0, i32 6
  %5 = call noundef i32 @_ZNK6vectorIP9func_declLb0EjE4sizeEv(ptr noundef nonnull align 8 dereferenceable(8) %4)
  ret i32 %5
}

; Function Attrs: mustprogress uwtable
define hidden void @_ZN10model_core15add_lambda_defsEv(ptr noundef nonnull align 8 dereferenceable(96) %0) #6 align 2 {
  %2 = alloca ptr, align 8
  %3 = alloca i32, align 4
  %4 = alloca i32, align 4
  %5 = alloca i32, align 4
  %6 = alloca ptr, align 8
  %7 = alloca ptr, align 8
  %8 = alloca ptr, align 8
  store ptr %0, ptr %2, align 8, !tbaa !3
  %9 = load ptr, ptr %2, align 8
  call void @llvm.lifetime.start.p0(i64 4, ptr %3) #3
  %10 = call noundef i32 @_ZNK10model_core13get_num_declsEv(ptr noundef nonnull align 8 dereferenceable(96) %9)
  store i32 %10, ptr %3, align 4, !tbaa !72
  call void @llvm.lifetime.start.p0(i64 4, ptr %4) #3
  %11 = load i32, ptr %3, align 4, !tbaa !72
  store i32 %11, ptr %4, align 4, !tbaa !72
  br label %12

12:                                               ; preds = %47, %45, %1
  %13 = load i32, ptr %4, align 4, !tbaa !72
  %14 = add i32 %13, -1
  store i32 %14, ptr %4, align 4, !tbaa !72
  %15 = icmp ugt i32 %13, 0
  br i1 %15, label %17, label %16

16:                                               ; preds = %12
  store i32 2, ptr %5, align 4
  call void @llvm.lifetime.end.p0(i64 4, ptr %4) #3
  br label %48

17:                                               ; preds = %12
  call void @llvm.lifetime.start.p0(i64 8, ptr %6) #3
  %18 = load i32, ptr %4, align 4, !tbaa !72
  %19 = call noundef ptr @_ZNK10model_core8get_declEj(ptr noundef nonnull align 8 dereferenceable(96) %9, i32 noundef %18)
  store ptr %19, ptr %6, align 8, !tbaa !56
  call void @llvm.lifetime.start.p0(i64 8, ptr %7) #3
  %20 = getelementptr inbounds nuw %class.model_core, ptr %9, i32 0, i32 1
  %21 = load ptr, ptr %20, align 8, !tbaa !14
  %22 = load ptr, ptr %6, align 8, !tbaa !56
  %23 = call noundef ptr @_ZN11ast_manager13is_lambda_defEP9func_decl(ptr noundef nonnull align 8 dereferenceable(976) %21, ptr noundef %22)
  store ptr %23, ptr %7, align 8, !tbaa !88
  %24 = load ptr, ptr %7, align 8, !tbaa !88
  %25 = icmp ne ptr %24, null
  br i1 %25, label %27, label %26

26:                                               ; preds = %17
  store i32 3, ptr %5, align 4
  br label %45, !llvm.loop !90

27:                                               ; preds = %17
  %28 = load ptr, ptr %6, align 8, !tbaa !56
  %29 = call noundef i32 @_ZNK9func_decl9get_arityEv(ptr noundef nonnull align 8 dereferenceable(48) %28)
  %30 = icmp ugt i32 %29, 0
  br i1 %30, label %31, label %41

31:                                               ; preds = %27
  call void @llvm.lifetime.start.p0(i64 8, ptr %8) #3
  %32 = call noalias noundef ptr @_ZN6memory8allocateEm(i64 noundef 56)
  %33 = getelementptr inbounds nuw %class.model_core, ptr %9, i32 0, i32 1
  %34 = load ptr, ptr %33, align 8, !tbaa !14
  %35 = load ptr, ptr %6, align 8, !tbaa !56
  %36 = call noundef i32 @_ZNK9func_decl9get_arityEv(ptr noundef nonnull align 8 dereferenceable(48) %35)
  call void @_ZN11func_interpC1ER11ast_managerj(ptr noundef nonnull align 8 dereferenceable(56) %32, ptr noundef nonnull align 8 dereferenceable(976) %34, i32 noundef %36)
  store ptr %32, ptr %8, align 8, !tbaa !53
  %37 = load ptr, ptr %8, align 8, !tbaa !53
  %38 = load ptr, ptr %7, align 8, !tbaa !88
  call void @_ZN11func_interp8set_elseEP4expr(ptr noundef nonnull align 8 dereferenceable(56) %37, ptr noundef %38)
  %39 = load ptr, ptr %6, align 8, !tbaa !56
  %40 = load ptr, ptr %8, align 8, !tbaa !53
  call void @_ZN10model_core13register_declEP9func_declP11func_interp(ptr noundef nonnull align 8 dereferenceable(96) %9, ptr noundef %39, ptr noundef %40)
  call void @llvm.lifetime.end.p0(i64 8, ptr %8) #3
  br label %44

41:                                               ; preds = %27
  %42 = load ptr, ptr %6, align 8, !tbaa !56
  %43 = load ptr, ptr %7, align 8, !tbaa !88
  call void @_ZN10model_core13register_declEP9func_declP4expr(ptr noundef nonnull align 8 dereferenceable(96) %9, ptr noundef %42, ptr noundef %43)
  br label %44

44:                                               ; preds = %41, %31
  store i32 0, ptr %5, align 4
  br label %45

45:                                               ; preds = %44, %26
  call void @llvm.lifetime.end.p0(i64 8, ptr %7) #3
  call void @llvm.lifetime.end.p0(i64 8, ptr %6) #3
  %46 = load i32, ptr %5, align 4
  switch i32 %46, label %49 [
    i32 0, label %47
    i32 3, label %12
  ]

47:                                               ; preds = %45
  br label %12, !llvm.loop !90

48:                                               ; preds = %16
  call void @llvm.lifetime.end.p0(i64 4, ptr %3) #3
  ret void

49:                                               ; preds = %45
  unreachable
}