; Function Attrs: mustprogress uwtable
define hidden void @_ZN10model_core15add_lambda_defsEv(ptr noundef nonnull align 8 dereferenceable(96) %0) local_unnamed_addr #9 align 2 {
  %2 = getelementptr inbounds nuw i8, ptr %0, i64 72
  %3 = load ptr, ptr %2, align 8, !tbaa !43
  %4 = icmp eq ptr %3, null
  br i1 %4, label %._crit_edge, label %_ZNK10model_core13get_num_declsEv.exit

_ZNK10model_core13get_num_declsEv.exit:           ; preds = %1
  %5 = getelementptr inbounds i8, ptr %3, i64 -4
  %6 = load i32, ptr %5, align 4, !tbaa !64
  %.not16 = icmp eq i32 %6, 0
  br i1 %.not16, label %._crit_edge, label %.lr.ph

.lr.ph:                                           ; preds = %_ZNK10model_core13get_num_declsEv.exit
  %7 = getelementptr inbounds nuw i8, ptr %0, i64 8
  %8 = zext i32 %6 to i64
  br label %9

._crit_edge:                                      ; preds = %_ZN10model_core13register_declEP9func_declP11func_interp.exit, %1, %_ZNK10model_core13get_num_declsEv.exit
  ret void

9:                                                ; preds = %.lr.ph, %_ZN10model_core13register_declEP9func_declP11func_interp.exit
  %indvars.iv = phi i64 [ %8, %.lr.ph ], [ %10, %_ZN10model_core13register_declEP9func_declP11func_interp.exit ]
  %10 = add nsw i64 %indvars.iv, -1
  %11 = load ptr, ptr %2, align 8, !tbaa !43
  %12 = getelementptr inbounds nuw ptr, ptr %11, i64 %10
  %13 = load ptr, ptr %12, align 8, !tbaa !65
  %14 = load ptr, ptr %7, align 8, !tbaa !30
  %15 = tail call noundef ptr @_ZN11ast_manager13is_lambda_defEP9func_decl(ptr noundef nonnull align 8 dereferenceable(976) %14, ptr noundef %13)
  %.not14 = icmp eq ptr %15, null
  br i1 %.not14, label %_ZN10model_core13register_declEP9func_declP11func_interp.exit, label %16, !llvm.loop !69

16:                                               ; preds = %9
  %17 = getelementptr inbounds nuw i8, ptr %13, i64 32
  %18 = load i32, ptr %17, align 8, !tbaa !46
  %.not15 = icmp eq i32 %18, 0
  br i1 %.not15, label %26, label %19

19:                                               ; preds = %16
  %20 = tail call noalias noundef ptr @_ZN6memory8allocateEm(i64 noundef 56)
  %21 = load ptr, ptr %7, align 8, !tbaa !30
  %22 = load i32, ptr %17, align 8, !tbaa !46
  tail call void @_ZN11func_interpC1ER11ast_managerj(ptr noundef nonnull align 8 dereferenceable(56) %20, ptr noundef nonnull align 8 dereferenceable(976) %21, i32 noundef %22)
  tail call void @_ZN11func_interp8set_elseEP4expr(ptr noundef nonnull align 8 dereferenceable(56) %20, ptr noundef nonnull %15)
  %23 = tail call noundef ptr @_ZN10model_core18update_func_interpEP9func_declP11func_interp(ptr noundef nonnull align 8 dereferenceable(96) %0, ptr noundef nonnull %13, ptr noundef nonnull %20)
  %24 = icmp eq ptr %23, null
  br i1 %24, label %_ZN10model_core13register_declEP9func_declP11func_interp.exit, label %25

25:                                               ; preds = %19
  tail call void @_ZN11func_interpD1Ev(ptr noundef nonnull align 8 dereferenceable(56) %23) #22
  tail call void @_ZN6memory10deallocateEPv(ptr noundef nonnull %23)
  br label %_ZN10model_core13register_declEP9func_declP11func_interp.exit

26:                                               ; preds = %16
  tail call void @_ZN10model_core13register_declEP9func_declP4expr(ptr noundef nonnull align 8 dereferenceable(96) %0, ptr noundef nonnull %13, ptr noundef nonnull %15)
  br label %_ZN10model_core13register_declEP9func_declP11func_interp.exit

_ZN10model_core13register_declEP9func_declP11func_interp.exit: ; preds = %25, %19, %26, %9
  %.not.wide = icmp eq i64 %10, 0
  br i1 %.not.wide, label %._crit_edge, label %9
}